; Function Attrs: nounwind uwtable
define noundef ptr @Abc_NtkCSweep(ptr noundef %0, i32 noundef %1, i32 noundef %2, i32 noundef %3) local_unnamed_addr #1 {
  %5 = tail call ptr @Abc_NtkToDar(ptr noundef %0, i32 noundef 0, i32 noundef 0)
  %6 = icmp eq ptr %5, null
  br i1 %6, label %10, label %7

7:                                                ; preds = %4
  %8 = tail call ptr @Csw_Sweep(ptr noundef nonnull %5, i32 noundef %1, i32 noundef %2, i32 noundef %3) #19
  %9 = tail call ptr @Abc_NtkFromDar(ptr noundef %0, ptr noundef %8)
  tail call void @Aig_ManStop(ptr noundef nonnull %5) #19
  tail call void @Aig_ManStop(ptr noundef %8) #19
  br label %10

10:                                               ; preds = %4, %7
  %.0 = phi ptr [ %9, %7 ], [ null, %4 ]
  ret ptr %.0
}